target datalayout = "e-m:e-p270:32:32-p271:32:32-p272:64:64-i64:64-i128:128-f80:128-n8:16:32:64-S128"
target triple = "x86_64-pc-linux-gnu"

%"class.llvm::StringRef" = type { ptr, i64 }
%"struct.llvm::MachO::fat_arch" = type { i32, i32, i32, i32, i32 }
%"struct.llvm::MachO::fat_arch_64" = type { i32, i32, i64, i64, i32, i32 }
%"class.llvm::object::MachOUniversalBinary::ObjectForArch" = type { ptr, i32, %"struct.llvm::MachO::fat_arch", %"struct.llvm::MachO::fat_arch_64" }
%"class.llvm::object::MachOUniversalBinary" = type { %"class.llvm::object::Binary", i32, i32 }
%"class.llvm::object::Binary" = type { ptr, i32, %"class.llvm::MemoryBufferRef" }
%"class.llvm::MemoryBufferRef" = type { %"class.llvm::StringRef", %"class.llvm::StringRef" }
%"class.llvm::Expected.1" = type { %union.anon.2, i8, [7 x i8] }
%union.anon.2 = type { %"struct.llvm::AlignedCharArrayUnion.3" }
%"struct.llvm::AlignedCharArrayUnion.3" = type { [8 x i8] }

@.str.1 = private unnamed_addr constant [85 x i8] c"MachOUniversalBinary::ObjectForArch::getAsIRObject() called when Parent is a nullptr\00", align 1

; Function Attrs: mustprogress nounwind uwtable
define linkonce_odr hidden void @_ZN4llvm9StringRefC2EPKcm(ptr noundef nonnull align 8 dereferenceable(16) %0, ptr noundef %1, i64 noundef %2) unnamed_addr #0 comdat align 2 {
  %4 = alloca ptr, align 8
  %5 = alloca ptr, align 8
  %6 = alloca i64, align 8
  store ptr %0, ptr %4, align 8
  store ptr %1, ptr %5, align 8
  store i64 %2, ptr %6, align 8
  %7 = load ptr, ptr %4, align 8
  %8 = getelementptr inbounds nuw %"class.llvm::StringRef", ptr %7, i32 0, i32 0
  %9 = load ptr, ptr %5, align 8
  store ptr %9, ptr %8, align 8
  %10 = getelementptr inbounds nuw %"class.llvm::StringRef", ptr %7, i32 0, i32 1
  %11 = load i64, ptr %6, align 8
  store i64 %11, ptr %10, align 8
  ret void
}

; Function Attrs: mustprogress nounwind uwtable
define linkonce_odr noundef nonnull align 8 dereferenceable(8) ptr @_ZSt3minImERKT_S2_S2_(ptr noundef nonnull align 8 dereferenceable(8) %0, ptr noundef nonnull align 8 dereferenceable(8) %1) #0 comdat {
  %3 = alloca ptr, align 8
  %4 = alloca ptr, align 8
  %5 = alloca ptr, align 8
  store ptr %0, ptr %4, align 8
  store ptr %1, ptr %5, align 8
  %6 = load ptr, ptr %5, align 8
  %7 = load i64, ptr %6, align 8
  %8 = load ptr, ptr %4, align 8
  %9 = load i64, ptr %8, align 8
  %10 = icmp ult i64 %7, %9
  br i1 %10, label %11, label %13

11:                                               ; preds = %2
  %12 = load ptr, ptr %5, align 8
  store ptr %12, ptr %3, align 8
  br label %15

13:                                               ; preds = %2
  %14 = load ptr, ptr %4, align 8
  store ptr %14, ptr %3, align 8
  br label %15

15:                                               ; preds = %13, %11
  %16 = load ptr, ptr %3, align 8
  ret ptr %16
}

; Function Attrs: mustprogress nounwind uwtable
define linkonce_odr hidden void @_ZN4llvm15MemoryBufferRefC2ENS_9StringRefES1_(ptr noundef nonnull align 8 dereferenceable(32) %0, ptr %1, i64 %2, ptr %3, i64 %4) unnamed_addr #0 comdat align 2 {
  %6 = alloca %"class.llvm::StringRef", align 8
  %7 = alloca %"class.llvm::StringRef", align 8
  %8 = alloca ptr, align 8
  %9 = getelementptr inbounds nuw { ptr, i64 }, ptr %6, i32 0, i32 0
  store ptr %1, ptr %9, align 8
  %10 = getelementptr inbounds nuw { ptr, i64 }, ptr %6, i32 0, i32 1
  store i64 %2, ptr %10, align 8
  %11 = getelementptr inbounds nuw { ptr, i64 }, ptr %7, i32 0, i32 0
  store ptr %3, ptr %11, align 8
  %12 = getelementptr inbounds nuw { ptr, i64 }, ptr %7, i32 0, i32 1
  store i64 %4, ptr %12, align 8
  store ptr %0, ptr %8, align 8
  %13 = load ptr, ptr %8, align 8
  %14 = getelementptr inbounds nuw %"class.llvm::MemoryBufferRef", ptr %13, i32 0, i32 0
  call void @llvm.memcpy.p0.p0.i64(ptr align 8 %14, ptr align 8 %6, i64 16, i1 false)
  %15 = getelementptr inbounds nuw %"class.llvm::MemoryBufferRef", ptr %13, i32 0, i32 1
  call void @llvm.memcpy.p0.p0.i64(ptr align 8 %15, ptr align 8 %7, i64 16, i1 false)
  ret void
}

; Function Attrs: mustprogress nounwind uwtable
define linkonce_odr hidden { ptr, i64 } @_ZNK4llvm9StringRef6substrEmm(ptr noundef nonnull align 8 dereferenceable(16) %0, i64 noundef %1, i64 noundef %2) #0 comdat align 2 {
  %4 = alloca %"class.llvm::StringRef", align 8
  %5 = alloca ptr, align 8
  %6 = alloca i64, align 8
  %7 = alloca i64, align 8
  %8 = alloca i64, align 8
  store ptr %0, ptr %5, align 8
  store i64 %1, ptr %6, align 8
  store i64 %2, ptr %7, align 8
  %9 = load ptr, ptr %5, align 8
  %10 = getelementptr inbounds nuw %"class.llvm::StringRef", ptr %9, i32 0, i32 1
  %11 = call noundef nonnull align 8 dereferenceable(8) ptr @_ZSt3minImERKT_S2_S2_(ptr noundef nonnull align 8 dereferenceable(8) %6, ptr noundef nonnull align 8 dereferenceable(8) %10)
  %12 = load i64, ptr %11, align 8
  store i64 %12, ptr %6, align 8
  %13 = getelementptr inbounds nuw %"class.llvm::StringRef", ptr %9, i32 0, i32 0
  %14 = load ptr, ptr %13, align 8
  %15 = load i64, ptr %6, align 8
  %16 = getelementptr inbounds i8, ptr %14, i64 %15
  %17 = getelementptr inbounds nuw %"class.llvm::StringRef", ptr %9, i32 0, i32 1
  %18 = load i64, ptr %17, align 8
  %19 = load i64, ptr %6, align 8
  %20 = sub i64 %18, %19
  store i64 %20, ptr %8, align 8
  %21 = call noundef nonnull align 8 dereferenceable(8) ptr @_ZSt3minImERKT_S2_S2_(ptr noundef nonnull align 8 dereferenceable(8) %7, ptr noundef nonnull align 8 dereferenceable(8) %8)
  %22 = load i64, ptr %21, align 8
  call void @_ZN4llvm9StringRefC2EPKcm(ptr noundef nonnull align 8 dereferenceable(16) %4, ptr noundef %16, i64 noundef %22)
  %23 = load { ptr, i64 }, ptr %4, align 8
  ret { ptr, i64 } %23
}

; Function Attrs: mustprogress nounwind uwtable
define linkonce_odr hidden noundef i32 @_ZNK4llvm6object20MachOUniversalBinary8getMagicEv(ptr noundef nonnull align 8 dereferenceable(56) %0) #0 comdat align 2 {
  %2 = alloca ptr, align 8
  store ptr %0, ptr %2, align 8
  %3 = load ptr, ptr %2, align 8
  %4 = getelementptr inbounds nuw %"class.llvm::object::MachOUniversalBinary", ptr %3, i32 0, i32 1
  %5 = load i32, ptr %4, align 8
  ret i32 %5
}

; Function Attrs: mustprogress nounwind uwtable
define linkonce_odr hidden void @_ZN4llvm9StringRefC2Ev(ptr noundef nonnull align 8 dereferenceable(16) %0) unnamed_addr #0 comdat align 2 {
  %2 = alloca ptr, align 8
  store ptr %0, ptr %2, align 8
  %3 = load ptr, ptr %2, align 8
  %4 = getelementptr inbounds nuw %"class.llvm::StringRef", ptr %3, i32 0, i32 0
  store ptr null, ptr %4, align 8
  %5 = getelementptr inbounds nuw %"class.llvm::StringRef", ptr %3, i32 0, i32 1
  store i64 0, ptr %5, align 8
  ret void
}

; Function Attrs: mustprogress nounwind uwtable
define dso_local void @_ZNK4llvm6object20MachOUniversalBinary13ObjectForArch13getAsIRObjectERNS_11LLVMContextE(ptr dead_on_unwind noalias writable sret(%"class.llvm::Expected.1") align 8 %0, ptr noundef nonnull align 8 dereferenceable(64) %1, ptr noundef nonnull align 1 %2) #0 align 2 {
  %4 = alloca ptr, align 8
  %5 = alloca ptr, align 8
  %6 = alloca ptr, align 8
  %7 = alloca %"class.llvm::StringRef", align 8
  %8 = alloca %"class.llvm::StringRef", align 8
  %9 = alloca %"class.llvm::StringRef", align 8
  %10 = alloca %"class.llvm::StringRef", align 8
  %11 = alloca %"class.llvm::StringRef", align 8
  %12 = alloca %"class.llvm::MemoryBufferRef", align 8
  %13 = alloca %"class.llvm::StringRef", align 8
  %14 = alloca %"class.llvm::StringRef", align 8
  %15 = alloca %"class.llvm::MemoryBufferRef", align 8
  store ptr %0, ptr %4, align 8
  store ptr %1, ptr %5, align 8
  store ptr %2, ptr %6, align 8
  %16 = load ptr, ptr %5, align 8
  %17 = getelementptr inbounds nuw %"class.llvm::object::MachOUniversalBinary::ObjectForArch", ptr %16, i32 0, i32 0
  %18 = load ptr, ptr %17, align 8
  %19 = icmp ne ptr %18, null
  br i1 %19, label %21, label %20

20:                                               ; preds = %3
  call void @_ZN4llvm18report_fatal_errorEPKcb(ptr noundef @.str.1, i1 noundef zeroext true) #10
  unreachable

21:                                               ; preds = %3
  %22 = getelementptr inbounds nuw %"class.llvm::object::MachOUniversalBinary::ObjectForArch", ptr %16, i32 0, i32 0
  %23 = load ptr, ptr %22, align 8
  %24 = call { ptr, i64 } @_ZNK4llvm6object6Binary7getDataEv(ptr noundef nonnull align 8 dereferenceable(48) %23)
  %25 = getelementptr inbounds nuw { ptr, i64 }, ptr %7, i32 0, i32 0
  %26 = extractvalue { ptr, i64 } %24, 0
  store ptr %26, ptr %25, align 8
  %27 = getelementptr inbounds nuw { ptr, i64 }, ptr %7, i32 0, i32 1
  %28 = extractvalue { ptr, i64 } %24, 1
  store i64 %28, ptr %27, align 8
  call void @_ZN4llvm9StringRefC2Ev(ptr noundef nonnull align 8 dereferenceable(16) %8) #11
  %29 = getelementptr inbounds nuw %"class.llvm::object::MachOUniversalBinary::ObjectForArch", ptr %16, i32 0, i32 0
  %30 = load ptr, ptr %29, align 8
  %31 = call noundef i32 @_ZNK4llvm6object20MachOUniversalBinary8getMagicEv(ptr noundef nonnull align 8 dereferenceable(56) %30)
  %32 = icmp eq i32 %31, -889275714
  br i1 %32, label %33, label %47

33:                                               ; preds = %21
  %34 = getelementptr inbounds nuw %"class.llvm::object::MachOUniversalBinary::ObjectForArch", ptr %16, i32 0, i32 2
  %35 = getelementptr inbounds nuw %"struct.llvm::MachO::fat_arch", ptr %34, i32 0, i32 2
  %36 = load i32, ptr %35, align 4
  %37 = zext i32 %36 to i64
  %38 = getelementptr inbounds nuw %"class.llvm::object::MachOUniversalBinary::ObjectForArch", ptr %16, i32 0, i32 2
  %39 = getelementptr inbounds nuw %"struct.llvm::MachO::fat_arch", ptr %38, i32 0, i32 3
  %40 = load i32, ptr %39, align 4
  %41 = zext i32 %40 to i64
  %42 = call { ptr, i64 } @_ZNK4llvm9StringRef6substrEmm(ptr noundef nonnull align 8 dereferenceable(16) %7, i64 noundef %37, i64 noundef %41)
  %43 = getelementptr inbounds nuw { ptr, i64 }, ptr %9, i32 0, i32 0
  %44 = extractvalue { ptr, i64 } %42, 0
  store ptr %44, ptr %43, align 8
  %45 = getelementptr inbounds nuw { ptr, i64 }, ptr %9, i32 0, i32 1
  %46 = extractvalue { ptr, i64 } %42, 1
  store i64 %46, ptr %45, align 8
  call void @llvm.memcpy.p0.p0.i64(ptr align 8 %8, ptr align 8 %9, i64 16, i1 false)
  br label %59

47:                                               ; preds = %21
  %48 = getelementptr inbounds nuw %"class.llvm::object::MachOUniversalBinary::ObjectForArch", ptr %16, i32 0, i32 3
  %49 = getelementptr inbounds nuw %"struct.llvm::MachO::fat_arch_64", ptr %48, i32 0, i32 2
  %50 = load i64, ptr %49, align 8
  %51 = getelementptr inbounds nuw %"class.llvm::object::MachOUniversalBinary::ObjectForArch", ptr %16, i32 0, i32 3
  %52 = getelementptr inbounds nuw %"struct.llvm::MachO::fat_arch_64", ptr %51, i32 0, i32 3
  %53 = load i64, ptr %52, align 8
  %54 = call { ptr, i64 } @_ZNK4llvm9StringRef6substrEmm(ptr noundef nonnull align 8 dereferenceable(16) %7, i64 noundef %50, i64 noundef %53)
  %55 = getelementptr inbounds nuw { ptr, i64 }, ptr %10, i32 0, i32 0
  %56 = extractvalue { ptr, i64 } %54, 0
  store ptr %56, ptr %55, align 8
  %57 = getelementptr inbounds nuw { ptr, i64 }, ptr %10, i32 0, i32 1
  %58 = extractvalue { ptr, i64 } %54, 1
  store i64 %58, ptr %57, align 8
  call void @llvm.memcpy.p0.p0.i64(ptr align 8 %8, ptr align 8 %10, i64 16, i1 false)
  br label %59

59:                                               ; preds = %47, %33
  %60 = getelementptr inbounds nuw %"class.llvm::object::MachOUniversalBinary::ObjectForArch", ptr %16, i32 0, i32 0
  %61 = load ptr, ptr %60, align 8
  %62 = call { ptr, i64 } @_ZNK4llvm6object6Binary11getFileNameEv(ptr noundef nonnull align 8 dereferenceable(48) %61)
  %63 = getelementptr inbounds nuw { ptr, i64 }, ptr %11, i32 0, i32 0
  %64 = extractvalue { ptr, i64 } %62, 0
  store ptr %64, ptr %63, align 8
  %65 = getelementptr inbounds nuw { ptr, i64 }, ptr %11, i32 0, i32 1
  %66 = extractvalue { ptr, i64 } %62, 1
  store i64 %66, ptr %65, align 8
  call void @llvm.memcpy.p0.p0.i64(ptr align 8 %13, ptr align 8 %8, i64 16, i1 false)
  call void @llvm.memcpy.p0.p0.i64(ptr align 8 %14, ptr align 8 %11, i64 16, i1 false)
  %67 = getelementptr inbounds nuw { ptr, i64 }, ptr %13, i32 0, i32 0
  %68 = load ptr, ptr %67, align 8
  %69 = getelementptr inbounds nuw { ptr, i64 }, ptr %13, i32 0, i32 1
  %70 = load i64, ptr %69, align 8
  %71 = getelementptr inbounds nuw { ptr, i64 }, ptr %14, i32 0, i32 0
  %72 = load ptr, ptr %71, align 8
  %73 = getelementptr inbounds nuw { ptr, i64 }, ptr %14, i32 0, i32 1
  %74 = load i64, ptr %73, align 8
  call void @_ZN4llvm15MemoryBufferRefC2ENS_9StringRefES1_(ptr noundef nonnull align 8 dereferenceable(32) %12, ptr %68, i64 %70, ptr %72, i64 %74)
  call void @llvm.memcpy.p0.p0.i64(ptr align 8 %15, ptr align 8 %12, i64 32, i1 false)
  %75 = load ptr, ptr %6, align 8
  call void @_ZN4llvm6object12IRObjectFile6createENS_15MemoryBufferRefERNS_11LLVMContextE(ptr dead_on_unwind writable sret(%"class.llvm::Expected.1") align 8 %0, ptr noundef byval(%"class.llvm::MemoryBufferRef") align 8 %15, ptr noundef nonnull align 1 %75)
  ret void
}