; Function Attrs: mustprogress nounwind uwtable
define dso_local void @_ZNK4llvm6object20MachOUniversalBinary13ObjectForArch13getAsIRObjectERNS_11LLVMContextE(ptr dead_on_unwind noalias writable sret(%"class.llvm::Expected.1") align 8 %0, ptr nocapture noundef nonnull readonly align 8 dereferenceable(64) %1, ptr noundef nonnull align 1 %2) local_unnamed_addr #0 align 2 {
  %4 = alloca %"class.llvm::MemoryBufferRef", align 8
  %5 = load ptr, ptr %1, align 8
  %.not = icmp eq ptr %5, null
  br i1 %.not, label %6, label %7

6:                                                ; preds = %3
  tail call void @_ZN4llvm18report_fatal_errorEPKcb(ptr noundef nonnull @.str.1, i1 noundef zeroext true) #15
  unreachable

7:                                                ; preds = %3
  %8 = tail call { ptr, i64 } @_ZNK4llvm6object6Binary7getDataEv(ptr noundef nonnull align 8 dereferenceable(48) %5) #14
  %9 = extractvalue { ptr, i64 } %8, 1
  %10 = load ptr, ptr %1, align 8
  %11 = getelementptr inbounds nuw i8, ptr %10, i64 48
  %12 = load i32, ptr %11, align 8
  %13 = icmp eq i32 %12, -889275714
  %14 = getelementptr inbounds i8, ptr %1, i64 40
  %15 = load i64, ptr %14, align 8
  %16 = getelementptr inbounds i8, ptr %1, i64 48
  %17 = load i64, ptr %16, align 8
  %18 = getelementptr inbounds i8, ptr %1, i64 20
  %19 = load i32, ptr %18, align 4
  %20 = zext i32 %19 to i64
  %21 = getelementptr inbounds i8, ptr %1, i64 24
  %22 = load i32, ptr %21, align 8
  %23 = zext i32 %22 to i64
  %.sink = select i1 %13, i64 %20, i64 %15
  %.sink20 = select i1 %13, i64 %23, i64 %17
  %.sroa.speculated5.i10 = tail call i64 @llvm.umin.i64(i64 %9, i64 %.sink)
  %24 = sub i64 %9, %.sroa.speculated5.i10
  %.sroa.speculated.i11 = tail call i64 @llvm.umin.i64(i64 %24, i64 %.sink20)
  %25 = extractvalue { ptr, i64 } %8, 0
  %.sroa.014.0 = getelementptr inbounds i8, ptr %25, i64 %.sroa.speculated5.i10
  %26 = tail call { ptr, i64 } @_ZNK4llvm6object6Binary11getFileNameEv(ptr noundef nonnull align 8 dereferenceable(48) %10) #14
  %27 = extractvalue { ptr, i64 } %26, 0
  %28 = extractvalue { ptr, i64 } %26, 1
  store ptr %.sroa.014.0, ptr %4, align 8
  %.sroa.2.0..sroa_idx = getelementptr inbounds i8, ptr %4, i64 8
  store i64 %.sroa.speculated.i11, ptr %.sroa.2.0..sroa_idx, align 8
  %.sroa.3.0..sroa_idx = getelementptr inbounds i8, ptr %4, i64 16
  store ptr %27, ptr %.sroa.3.0..sroa_idx, align 8
  %.sroa.4.0..sroa_idx = getelementptr inbounds i8, ptr %4, i64 24
  store i64 %28, ptr %.sroa.4.0..sroa_idx, align 8
  tail call void @_ZN4llvm6object12IRObjectFile6createENS_15MemoryBufferRefERNS_11LLVMContextE(ptr dead_on_unwind writable sret(%"class.llvm::Expected.1") align 8 %0, ptr noundef nonnull byval(%"class.llvm::MemoryBufferRef") align 8 %4, ptr noundef nonnull align 1 %2) #14
  ret void
}